target datalayout = "e-m:e-p270:32:32-p271:32:32-p272:64:64-i64:64-i128:128-f80:128-n8:16:32:64-S128"
target triple = "x86_64-pc-linux-gnu"

; Function Attrs: mustprogress uwtable
define internal noundef i64 @_ZL24xtc_get_next_frame_startP8_IO_FILEP3XDRi(ptr noundef %0, ptr noundef %1, i32 noundef %2) #0 {
  %4 = alloca i64, align 8
  %5 = alloca ptr, align 8
  %6 = alloca ptr, align 8
  %7 = alloca i32, align 4
  %8 = alloca i64, align 8
  %9 = alloca i32, align 4
  %10 = alloca i32, align 4
  %11 = alloca float, align 4
  %12 = alloca i32, align 4
  store ptr %0, ptr %5, align 8, !tbaa !31
  store ptr %1, ptr %6, align 8, !tbaa !17
  store i32 %2, ptr %7, align 4, !tbaa !13
  call void @llvm.lifetime.start.p0(i64 8, ptr %8) #11
  call void @llvm.lifetime.start.p0(i64 4, ptr %9) #11
  call void @llvm.lifetime.start.p0(i64 4, ptr %10) #11
  call void @llvm.lifetime.start.p0(i64 4, ptr %11) #11
  %13 = load ptr, ptr %6, align 8, !tbaa !17
  %14 = call noundef i32 @_Z7xdr_intP3XDRPi(ptr noundef %13, ptr noundef %10)
  br label %15

15:                                               ; preds = %37, %3
  br label %16

16:                                               ; preds = %15
  %17 = load ptr, ptr %5, align 8, !tbaa !31
  %18 = load ptr, ptr %6, align 8, !tbaa !17
  %19 = load i32, ptr %7, align 4, !tbaa !13
  %20 = call noundef i32 @_ZL19xtc_at_header_startP8_IO_FILEP3XDRiPiPf(ptr noundef %17, ptr noundef %18, i32 noundef %19, ptr noundef %10, ptr noundef %11)
  store i32 %20, ptr %9, align 4, !tbaa !13
  %21 = load i32, ptr %9, align 4, !tbaa !13
  %22 = icmp eq i32 %21, 1
  br i1 %22, label %23, label %32

23:                                               ; preds = %16
  %24 = load ptr, ptr %5, align 8, !tbaa !31
  %25 = call noundef i64 @_Z9gmx_ftellP8_IO_FILE(ptr noundef %24)
  store i64 %25, ptr %8, align 8, !tbaa !23
  %26 = icmp sge i64 %25, 0
  br i1 %26, label %27, label %30

27:                                               ; preds = %23
  %28 = load i64, ptr %8, align 8, !tbaa !23
  %29 = sub nsw i64 %28, 4
  store i64 %29, ptr %4, align 8
  store i32 1, ptr %12, align 4
  br label %38

30:                                               ; preds = %23
  %31 = load i64, ptr %8, align 8, !tbaa !23
  store i64 %31, ptr %4, align 8
  store i32 1, ptr %12, align 4
  br label %38

32:                                               ; preds = %16
  %33 = load i32, ptr %9, align 4, !tbaa !13
  %34 = icmp eq i32 %33, -1
  br i1 %34, label %35, label %36

35:                                               ; preds = %32
  store i64 -1, ptr %4, align 8
  store i32 1, ptr %12, align 4
  br label %38

36:                                               ; preds = %32
  br label %37

37:                                               ; preds = %36
  br label %15, !llvm.loop !74

38:                                               ; preds = %35, %30, %27
  call void @llvm.lifetime.end.p0(i64 4, ptr %11) #11
  call void @llvm.lifetime.end.p0(i64 4, ptr %10) #11
  call void @llvm.lifetime.end.p0(i64 4, ptr %9) #11
  call void @llvm.lifetime.end.p0(i64 8, ptr %8) #11
  %39 = load i64, ptr %4, align 8
  ret i64 %39
}