; Function Attrs: mustprogress uwtable
define internal fastcc noundef range(i64 -9223372036854775808, 9223372036854775804) i64 @_ZL24xtc_get_next_frame_startP8_IO_FILEP3XDRi(ptr noundef %0, ptr noundef %1, i32 noundef %2) unnamed_addr #3 {
  %4 = alloca i32, align 4
  %5 = alloca float, align 4
  call void @llvm.lifetime.start.p0(i64 4, ptr nonnull %4) #17
  call void @llvm.lifetime.start.p0(i64 4, ptr nonnull %5) #17
  %6 = call noundef i32 @_Z7xdr_intP3XDRPi(ptr noundef %1, ptr noundef nonnull %4)
  br label %7

7:                                                ; preds = %7, %3
  %8 = call fastcc noundef i32 @_ZL19xtc_at_header_startP8_IO_FILEP3XDRiPiPf(ptr noundef %0, ptr noundef %1, i32 noundef %2, ptr noundef %4, ptr noundef %5)
  switch i32 %8, label %7 [
    i32 1, label %9
    i32 -1, label %.loopexit
  ]

9:                                                ; preds = %7
  %10 = call noundef i64 @_Z9gmx_ftellP8_IO_FILE(ptr noundef %0)
  %11 = add nsw i64 %10, -4
  %12 = icmp slt i64 %10, 0
  %spec.select = select i1 %12, i64 %10, i64 %11
  br label %.loopexit

.loopexit:                                        ; preds = %7, %9
  %.0 = phi i64 [ %spec.select, %9 ], [ -1, %7 ]
  call void @llvm.lifetime.end.p0(i64 4, ptr nonnull %5) #17
  call void @llvm.lifetime.end.p0(i64 4, ptr nonnull %4) #17
  ret i64 %.0
}